; Function Attrs: nounwind uwtable
define hidden i32 @drsuapi_dissect_struct_DsGetMembershipsCtr1(ptr noundef %0, i32 noundef %1, ptr noundef %2, ptr noundef %3, ptr noundef %4, ptr noundef %5, i32 noundef %6, i32 %7) local_unnamed_addr #0 {
  %9 = getelementptr inbounds nuw i8, ptr %4, i64 72
  %10 = load ptr, ptr %9, align 8
  %11 = getelementptr inbounds nuw i8, ptr %10, i64 96
  %12 = load i32, ptr %11, align 8
  %13 = and i32 %12, 1
  %.not = icmp eq i32 %13, 0
  %14 = getelementptr inbounds nuw i8, ptr %4, i64 28
  %15 = load i32, ptr %14, align 4
  %.not64 = icmp ne i32 %15, 0
  br i1 %.not, label %21, label %16

16:                                               ; preds = %8
  %17 = and i32 %1, 7
  %.not67 = icmp eq i32 %17, 0
  %or.cond = or i1 %.not67, %.not64
  br i1 %or.cond, label %26, label %18

18:                                               ; preds = %16
  %19 = and i32 %1, -8
  %20 = add i32 %19, 8
  br label %26

21:                                               ; preds = %8
  %22 = and i32 %1, 3
  %.not65 = icmp eq i32 %22, 0
  %or.cond72 = or i1 %.not65, %.not64
  br i1 %or.cond72, label %26, label %23

23:                                               ; preds = %21
  %24 = and i32 %1, -4
  %25 = add i32 %24, 4
  br label %26

26:                                               ; preds = %21, %23, %16, %18
  %.0 = phi i32 [ %1, %16 ], [ %20, %18 ], [ %1, %21 ], [ %25, %23 ]
  %.not68 = icmp eq ptr %3, null
  br i1 %.not68, label %31, label %27

27:                                               ; preds = %26
  %28 = tail call ptr @proto_tree_add_item(ptr noundef nonnull %3, i32 noundef %6, ptr noundef %0, i32 noundef %.0, i32 noundef -1, i32 noundef 0) #5
  %29 = load i32, ptr @ett_drsuapi_drsuapi_DsGetMembershipsCtr1, align 4
  %30 = tail call ptr @proto_item_add_subtree(ptr noundef %28, i32 noundef %29) #5
  br label %31

31:                                               ; preds = %27, %26
  %.062 = phi ptr [ %28, %27 ], [ null, %26 ]
  %.061 = phi ptr [ %30, %27 ], [ null, %26 ]
  %32 = load i32, ptr @hf_drsuapi_drsuapi_DsGetMembershipsCtr1_status, align 4
  %33 = tail call i32 @PIDL_dissect_uint32(ptr noundef %0, i32 noundef %.0, ptr noundef %2, ptr noundef %.061, ptr noundef nonnull %4, ptr noundef %5, i32 noundef %32, i32 noundef 0) #5
  %34 = load i32, ptr @hf_drsuapi_drsuapi_DsGetMembershipsCtr1_num_memberships, align 4
  %35 = tail call i32 @PIDL_dissect_uint32(ptr noundef %0, i32 noundef %33, ptr noundef %2, ptr noundef %.061, ptr noundef nonnull %4, ptr noundef %5, i32 noundef %34, i32 noundef 0) #5
  %36 = load i32, ptr @hf_drsuapi_drsuapi_DsGetMembershipsCtr1_num_sids, align 4
  %37 = tail call i32 @PIDL_dissect_uint32(ptr noundef %0, i32 noundef %35, ptr noundef %2, ptr noundef %.061, ptr noundef nonnull %4, ptr noundef %5, i32 noundef %36, i32 noundef 0) #5
  %38 = load i32, ptr @hf_drsuapi_drsuapi_DsGetMembershipsCtr1_info_array, align 4
  %39 = tail call i32 @dissect_ndr_embedded_pointer(ptr noundef %0, i32 noundef %37, ptr noundef %2, ptr noundef %.061, ptr noundef nonnull %4, ptr noundef %5, ptr noundef nonnull @drsuapi_dissect_element_DsGetMembershipsCtr1_info_array_, i32 noundef 2, ptr noundef nonnull @.str.1460, i32 noundef %38) #5
  %40 = load i32, ptr @hf_drsuapi_drsuapi_DsGetMembershipsCtr1_group_attrs, align 4
  %41 = tail call i32 @dissect_ndr_embedded_pointer(ptr noundef %0, i32 noundef %39, ptr noundef %2, ptr noundef %.061, ptr noundef nonnull %4, ptr noundef %5, ptr noundef nonnull @drsuapi_dissect_element_DsGetMembershipsCtr1_group_attrs_, i32 noundef 2, ptr noundef nonnull @.str.1461, i32 noundef %40) #5
  %42 = load i32, ptr @hf_drsuapi_drsuapi_DsGetMembershipsCtr1_sids, align 4
  %43 = tail call i32 @dissect_ndr_embedded_pointer(ptr noundef %0, i32 noundef %41, ptr noundef %2, ptr noundef %.061, ptr noundef nonnull %4, ptr noundef %5, ptr noundef nonnull @drsuapi_dissect_element_DsGetMembershipsCtr1_sids_, i32 noundef 2, ptr noundef nonnull @.str.1462, i32 noundef %42) #5
  %44 = sub i32 %43, %.0
  tail call void @proto_item_set_len(ptr noundef %.062, i32 noundef %44) #5
  %45 = load ptr, ptr %9, align 8
  %46 = getelementptr inbounds nuw i8, ptr %45, i64 96
  %47 = load i32, ptr %46, align 8
  %48 = and i32 %47, 1
  %.not69 = icmp eq i32 %48, 0
  br i1 %.not69, label %56, label %49

49:                                               ; preds = %31
  %50 = getelementptr inbounds nuw i8, ptr %4, i64 28
  %51 = load i32, ptr %50, align 4
  %.not70 = icmp ne i32 %51, 0
  %52 = and i32 %43, 7
  %.not71 = icmp eq i32 %52, 0
  %or.cond73 = or i1 %.not71, %.not70
  br i1 %or.cond73, label %56, label %53

53:                                               ; preds = %49
  %54 = and i32 %43, -8
  %55 = add i32 %54, 8
  br label %56

56:                                               ; preds = %53, %49, %31
  %.1 = phi i32 [ %43, %49 ], [ %55, %53 ], [ %43, %31 ]
  ret i32 %.1
}